target datalayout = "e-m:e-p270:32:32-p271:32:32-p272:64:64-i64:64-i128:128-f80:128-n8:16:32:64-S128"
target triple = "x86_64-pc-linux-gnu"

@hf_gsm_a_rr_ec_qhfi = internal global i32 0, align 4
@hf_gsm_a_rr_ec_dl_cc = internal global i32 0, align 4
@hf_gsm_a_rr_ec_ul_cc = internal global i32 0, align 4
@hf_gsm_a_rr_tsc_set = internal global i32 0, align 4
@hf_gsm_a_rr_ec_tsc = internal global i32 0, align 4
@hf_gsm_a_rr_ec_ma_number = internal global i32 0, align 4

; Function Attrs: null_pointer_is_valid sspstrong uwtable
define internal zeroext i16 @de_rr_ec_pkt_ch_dsc1(ptr noundef %0, ptr noundef %1, ptr noundef %2, i32 noundef %3, i32 noundef %4, ptr noundef %5, i32 noundef %6) #1 {
  %8 = alloca ptr, align 8
  %9 = alloca ptr, align 8
  %10 = alloca ptr, align 8
  %11 = alloca i32, align 4
  %12 = alloca i32, align 4
  %13 = alloca ptr, align 8
  %14 = alloca i32, align 4
  %15 = alloca i32, align 4
  %16 = alloca i32, align 4
  store ptr %0, ptr %8, align 8
  store ptr %1, ptr %9, align 8
  store ptr %2, ptr %10, align 8
  store i32 %3, ptr %11, align 4
  store i32 %4, ptr %12, align 4
  store ptr %5, ptr %13, align 8
  store i32 %6, ptr %14, align 4
  call void @llvm.lifetime.start.p0(i64 4, ptr %15) #11
  call void @llvm.lifetime.start.p0(i64 4, ptr %16) #11
  %17 = load i32, ptr %11, align 4
  store i32 %17, ptr %15, align 4
  %18 = load i32, ptr %15, align 4
  %19 = shl i32 %18, 3
  store i32 %19, ptr %16, align 4
  %20 = load ptr, ptr %9, align 8
  %21 = load i32, ptr @hf_gsm_a_rr_ec_qhfi, align 4
  %22 = load ptr, ptr %8, align 8
  %23 = load i32, ptr %16, align 4
  %24 = call ptr @proto_tree_add_bits_item(ptr noundef %20, i32 noundef %21, ptr noundef %22, i32 noundef %23, i32 noundef 2, i32 noundef 0)
  %25 = load i32, ptr %16, align 4
  %26 = add i32 %25, 2
  store i32 %26, ptr %16, align 4
  %27 = load ptr, ptr %9, align 8
  %28 = load i32, ptr @hf_gsm_a_rr_ec_dl_cc, align 4
  %29 = load ptr, ptr %8, align 8
  %30 = load i32, ptr %16, align 4
  %31 = call ptr @proto_tree_add_bits_item(ptr noundef %27, i32 noundef %28, ptr noundef %29, i32 noundef %30, i32 noundef 2, i32 noundef 0)
  %32 = load i32, ptr %16, align 4
  %33 = add i32 %32, 2
  store i32 %33, ptr %16, align 4
  %34 = load ptr, ptr %9, align 8
  %35 = load i32, ptr @hf_gsm_a_rr_ec_ul_cc, align 4
  %36 = load ptr, ptr %8, align 8
  %37 = load i32, ptr %16, align 4
  %38 = call ptr @proto_tree_add_bits_item(ptr noundef %34, i32 noundef %35, ptr noundef %36, i32 noundef %37, i32 noundef 2, i32 noundef 0)
  %39 = load i32, ptr %16, align 4
  %40 = add i32 %39, 2
  store i32 %40, ptr %16, align 4
  %41 = load ptr, ptr %9, align 8
  %42 = load i32, ptr @hf_gsm_a_rr_tsc_set, align 4
  %43 = load ptr, ptr %8, align 8
  %44 = load i32, ptr %16, align 4
  %45 = call ptr @proto_tree_add_bits_item(ptr noundef %41, i32 noundef %42, ptr noundef %43, i32 noundef %44, i32 noundef 1, i32 noundef 0)
  %46 = load i32, ptr %16, align 4
  %47 = add i32 %46, 1
  store i32 %47, ptr %16, align 4
  %48 = load ptr, ptr %9, align 8
  %49 = load i32, ptr @hf_gsm_a_rr_ec_tsc, align 4
  %50 = load ptr, ptr %8, align 8
  %51 = load i32, ptr %16, align 4
  %52 = call ptr @proto_tree_add_bits_item(ptr noundef %48, i32 noundef %49, ptr noundef %50, i32 noundef %51, i32 noundef 3, i32 noundef 0)
  %53 = load i32, ptr %16, align 4
  %54 = add i32 %53, 3
  store i32 %54, ptr %16, align 4
  %55 = load ptr, ptr %9, align 8
  %56 = load i32, ptr @hf_gsm_a_rr_ec_ma_number, align 4
  %57 = load ptr, ptr %8, align 8
  %58 = load i32, ptr %16, align 4
  %59 = call ptr @proto_tree_add_bits_item(ptr noundef %55, i32 noundef %56, ptr noundef %57, i32 noundef %58, i32 noundef 5, i32 noundef 0)
  call void @llvm.lifetime.end.p0(i64 4, ptr %16) #11
  call void @llvm.lifetime.end.p0(i64 4, ptr %15) #11
  ret i16 2
}