; Function Attrs: null_pointer_is_valid sspstrong uwtable
define internal noundef zeroext i16 @de_rr_ec_pkt_ch_dsc1(ptr noundef %0, ptr noundef %1, ptr readnone captures(none) %2, i32 noundef %3, i32 %4, ptr readnone captures(none) %5, i32 %6) #3 {
  %8 = shl i32 %3, 3
  %9 = load i32, ptr @hf_gsm_a_rr_ec_qhfi, align 4
  %10 = tail call ptr @proto_tree_add_bits_item(ptr noundef %1, i32 noundef %9, ptr noundef %0, i32 noundef %8, i32 noundef 2, i32 noundef 0)
  %11 = or disjoint i32 %8, 2
  %12 = load i32, ptr @hf_gsm_a_rr_ec_dl_cc, align 4
  %13 = tail call ptr @proto_tree_add_bits_item(ptr noundef %1, i32 noundef %12, ptr noundef %0, i32 noundef %11, i32 noundef 2, i32 noundef 0)
  %14 = or disjoint i32 %8, 4
  %15 = load i32, ptr @hf_gsm_a_rr_ec_ul_cc, align 4
  %16 = tail call ptr @proto_tree_add_bits_item(ptr noundef %1, i32 noundef %15, ptr noundef %0, i32 noundef %14, i32 noundef 2, i32 noundef 0)
  %17 = or disjoint i32 %8, 6
  %18 = load i32, ptr @hf_gsm_a_rr_tsc_set, align 4
  %19 = tail call ptr @proto_tree_add_bits_item(ptr noundef %1, i32 noundef %18, ptr noundef %0, i32 noundef %17, i32 noundef 1, i32 noundef 0)
  %20 = or disjoint i32 %8, 7
  %21 = load i32, ptr @hf_gsm_a_rr_ec_tsc, align 4
  %22 = tail call ptr @proto_tree_add_bits_item(ptr noundef %1, i32 noundef %21, ptr noundef %0, i32 noundef %20, i32 noundef 3, i32 noundef 0)
  %23 = add i32 %8, 10
  %24 = load i32, ptr @hf_gsm_a_rr_ec_ma_number, align 4
  %25 = tail call ptr @proto_tree_add_bits_item(ptr noundef %1, i32 noundef %24, ptr noundef %0, i32 noundef %23, i32 noundef 5, i32 noundef 0)
  ret i16 2
}